; ModuleID = '29/850.c'
source_filename = "29/850.c"
target datalayout = "e-m:e-p270:32:32-p271:32:32-p272:64:64-i64:64-f80:128-n8:16:32:64-S128"
target triple = "x86_64-pc-linux-gnu"

@.str = private unnamed_addr constant [3 x i8] c"%d\00", align 1
@.str.1 = private unnamed_addr constant [7 x i8] c"%.3lf\0A\00", align 1

; Function Attrs: noinline nounwind uwtable
define dso_local i32 @main() #0 {
  %1 = alloca i32, align 4
  %2 = alloca i32, align 4
  %3 = alloca [100 x i32], align 16
  %4 = alloca i32, align 4
  %5 = alloca i32, align 4
  %6 = alloca i32, align 4
  %7 = alloca i32, align 4
  %8 = alloca double, align 8
  %9 = alloca i32, align 4
  store i32 0, i32* %1, align 4
  store i32 0, i32* %4, align 4
  store i32 1, i32* %5, align 4
  store i32 1, i32* %6, align 4
  store i32 2, i32* %7, align 4
  store double 0.000000e+00, double* %8, align 8
  %10 = call i32 (i8*, ...) @__isoc99_scanf(i8* getelementptr inbounds ([3 x i8], [3 x i8]* @.str, i64 0, i64 0), i32* %2)
  store i32 0, i32* %4, align 4
  br label %11

11:                                               ; preds = %20, %0
  %12 = load i32, i32* %4, align 4
  %13 = load i32, i32* %2, align 4
  %14 = icmp slt i32 %12, %13
  br i1 %14, label %15, label %23

15:                                               ; preds = %11
  %16 = load i32, i32* %4, align 4
  %17 = sext i32 %16 to i64
  %18 = getelementptr inbounds [100 x i32], [100 x i32]* %3, i64 0, i64 %17
  %19 = call i32 (i8*, ...) @__isoc99_scanf(i8* getelementptr inbounds ([3 x i8], [3 x i8]* @.str, i64 0, i64 0), i32* %18)
  br label %20

20:                                               ; preds = %15
  %21 = load i32, i32* %4, align 4
  %22 = add nsw i32 %21, 1
  store i32 %22, i32* %4, align 4
  br label %11

23:                                               ; preds = %11
  store i32 0, i32* %4, align 4
  br label %24

24:                                               ; preds = %68, %23
  %25 = load i32, i32* %4, align 4
  %26 = load i32, i32* %2, align 4
  %27 = icmp slt i32 %25, %26
  br i1 %27, label %28, label %71

28:                                               ; preds = %24
  store i32 1, i32* %5, align 4
  br label %29

29:                                               ; preds = %62, %28
  %30 = load i32, i32* %5, align 4
  %31 = load i32, i32* %4, align 4
  %32 = sext i32 %31 to i64
  %33 = getelementptr inbounds [100 x i32], [100 x i32]* %3, i64 0, i64 %32
  %34 = load i32, i32* %33, align 4
  %35 = add nsw i32 %34, 1
  %36 = icmp slt i32 %30, %35
  br i1 %36, label %37, label %65

37:                                               ; preds = %29
  %38 = load i32, i32* %5, align 4
  %39 = icmp eq i32 %38, 1
  br i1 %39, label %40, label %48

40:                                               ; preds = %37
  %41 = load i32, i32* %7, align 4
  %42 = sitofp i32 %41 to double
  %43 = load i32, i32* %6, align 4
  %44 = sitofp i32 %43 to double
  %45 = fdiv double %42, %44
  %46 = load double, double* %8, align 8
  %47 = fadd double %46, %45
  store double %47, double* %8, align 8
  br label %61

48:                                               ; preds = %37
  %49 = load i32, i32* %7, align 4
  store i32 %49, i32* %9, align 4
  %50 = load i32, i32* %6, align 4
  %51 = load i32, i32* %7, align 4
  %52 = add nsw i32 %50, %51
  store i32 %52, i32* %7, align 4
  %53 = load i32, i32* %9, align 4
  store i32 %53, i32* %6, align 4
  %54 = load i32, i32* %7, align 4
  %55 = sitofp i32 %54 to double
  %56 = load i32, i32* %6, align 4
  %57 = sitofp i32 %56 to double
  %58 = fdiv double %55, %57
  %59 = load double, double* %8, align 8
  %60 = fadd double %59, %58
  store double %60, double* %8, align 8
  br label %61

61:                                               ; preds = %48, %40
  br label %62

62:                                               ; preds = %61
  %63 = load i32, i32* %5, align 4
  %64 = add nsw i32 %63, 1
  store i32 %64, i32* %5, align 4
  br label %29

65:                                               ; preds = %29
  %66 = load double, double* %8, align 8
  %67 = call i32 (i8*, ...) @printf(i8* getelementptr inbounds ([7 x i8], [7 x i8]* @.str.1, i64 0, i64 0), double %66)
  store i32 2, i32* %7, align 4
  store i32 1, i32* %6, align 4
  store double 0.000000e+00, double* %8, align 8
  br label %68

68:                                               ; preds = %65
  %69 = load i32, i32* %4, align 4
  %70 = add nsw i32 %69, 1
  store i32 %70, i32* %4, align 4
  br label %24

71:                                               ; preds = %24
  ret i32 0
}

declare dso_local i32 @__isoc99_scanf(i8*, ...) #1

declare dso_local i32 @printf(i8*, ...) #1


!llvm.module.flags = !{!0}
!llvm.ident = !{!1}

!0 = !{i32 1, !"wchar_size", i32 4}
!1 = !{!"clang version 10.0.0-4ubuntu1 "}
